target datalayout = "e-m:e-p270:32:32-p271:32:32-p272:64:64-i64:64-i128:128-f80:128-n8:16:32:64-S128"
target triple = "x86_64-pc-linux-gnu"

@hf_dpnss_ext_bit = internal global i32 0, align 4
@hf_dpnss_ext_bit_notall = internal global i32 0, align 4
@hf_dpnss_sic_type = internal global i32 0, align 4
@hf_dpnss_sic_details_for_speech = internal global i32 0, align 4
@hf_dpnss_sic_details_for_data1 = internal global i32 0, align 4
@hf_dpnss_sic_details_for_data2 = internal global i32 0, align 4
@hf_dpnss_sic_oct2_data_type = internal global i32 0, align 4
@hf_dpnss_sic_oct2_duplex = internal global i32 0, align 4
@hf_dpnss_sic_oct2_net_ind_clk = internal global i32 0, align 4
@hf_dpnss_sic_oct2_sync_data_format = internal global i32 0, align 4
@hf_dpnss_sic_oct2_sync_byte_timing = internal global i32 0, align 4
@hf_dpnss_sic_oct2_async_data = internal global i32 0, align 4
@hf_dpnss_sic_oct2_async_flow_ctrl = internal global i32 0, align 4

; Function Attrs: null_pointer_is_valid sspstrong uwtable
define internal i32 @dissect_dpnss_sic(ptr noundef %0, ptr noundef %1, ptr noundef %2, i32 noundef %3) #0 {
  %5 = alloca ptr, align 8
  %6 = alloca ptr, align 8
  %7 = alloca ptr, align 8
  %8 = alloca i32, align 4
  %9 = alloca i8, align 1
  %10 = alloca i8, align 1
  store ptr %0, ptr %5, align 8
  store ptr %1, ptr %6, align 8
  store ptr %2, ptr %7, align 8
  store i32 %3, ptr %8, align 4
  call void @llvm.lifetime.start.p0(i64 1, ptr %9) #3
  call void @llvm.lifetime.start.p0(i64 1, ptr %10) #3
  %11 = load ptr, ptr %5, align 8
  %12 = load i32, ptr %8, align 4
  %13 = call zeroext i8 @tvb_get_uint8(ptr noundef %11, i32 noundef %12)
  store i8 %13, ptr %9, align 1
  %14 = load i8, ptr %9, align 1
  %15 = zext i8 %14 to i32
  %16 = and i32 %15, 112
  %17 = ashr i32 %16, 4
  %18 = trunc i32 %17 to i8
  store i8 %18, ptr %10, align 1
  %19 = load ptr, ptr %7, align 8
  %20 = load i32, ptr @hf_dpnss_ext_bit, align 4
  %21 = load ptr, ptr %5, align 8
  %22 = load i32, ptr %8, align 4
  %23 = call ptr @proto_tree_add_item(ptr noundef %19, i32 noundef %20, ptr noundef %21, i32 noundef %22, i32 noundef 1, i32 noundef 0)
  %24 = load ptr, ptr %7, align 8
  %25 = load i32, ptr @hf_dpnss_sic_type, align 4
  %26 = load ptr, ptr %5, align 8
  %27 = load i32, ptr %8, align 4
  %28 = call ptr @proto_tree_add_item(ptr noundef %24, i32 noundef %25, ptr noundef %26, i32 noundef %27, i32 noundef 1, i32 noundef 0)
  %29 = load i8, ptr %10, align 1
  %30 = zext i8 %29 to i32
  switch i32 %30, label %49 [
    i32 1, label %31
    i32 2, label %37
    i32 3, label %43
  ]

31:                                               ; preds = %4
  %32 = load ptr, ptr %7, align 8
  %33 = load i32, ptr @hf_dpnss_sic_details_for_speech, align 4
  %34 = load ptr, ptr %5, align 8
  %35 = load i32, ptr %8, align 4
  %36 = call ptr @proto_tree_add_item(ptr noundef %32, i32 noundef %33, ptr noundef %34, i32 noundef %35, i32 noundef 1, i32 noundef 0)
  br label %50

37:                                               ; preds = %4
  %38 = load ptr, ptr %7, align 8
  %39 = load i32, ptr @hf_dpnss_sic_details_for_data1, align 4
  %40 = load ptr, ptr %5, align 8
  %41 = load i32, ptr %8, align 4
  %42 = call ptr @proto_tree_add_item(ptr noundef %38, i32 noundef %39, ptr noundef %40, i32 noundef %41, i32 noundef 1, i32 noundef 0)
  br label %50

43:                                               ; preds = %4
  %44 = load ptr, ptr %7, align 8
  %45 = load i32, ptr @hf_dpnss_sic_details_for_data2, align 4
  %46 = load ptr, ptr %5, align 8
  %47 = load i32, ptr %8, align 4
  %48 = call ptr @proto_tree_add_item(ptr noundef %44, i32 noundef %45, ptr noundef %46, i32 noundef %47, i32 noundef 1, i32 noundef 0)
  br label %50

49:                                               ; preds = %4
  br label %50

50:                                               ; preds = %49, %43, %37, %31
  %51 = load i32, ptr %8, align 4
  %52 = add i32 %51, 1
  store i32 %52, ptr %8, align 4
  %53 = load i8, ptr %9, align 1
  %54 = zext i8 %53 to i32
  %55 = and i32 %54, 128
  %56 = icmp eq i32 %55, 128
  br i1 %56, label %57, label %113

57:                                               ; preds = %50
  %58 = load ptr, ptr %5, align 8
  %59 = load i32, ptr %8, align 4
  %60 = call zeroext i8 @tvb_get_uint8(ptr noundef %58, i32 noundef %59)
  store i8 %60, ptr %9, align 1
  %61 = load i8, ptr %9, align 1
  %62 = zext i8 %61 to i32
  %63 = and i32 %62, 7
  %64 = trunc i32 %63 to i8
  store i8 %64, ptr %10, align 1
  %65 = load ptr, ptr %7, align 8
  %66 = load i32, ptr @hf_dpnss_ext_bit_notall, align 4
  %67 = load ptr, ptr %5, align 8
  %68 = load i32, ptr %8, align 4
  %69 = call ptr @proto_tree_add_item(ptr noundef %65, i32 noundef %66, ptr noundef %67, i32 noundef %68, i32 noundef 1, i32 noundef 0)
  %70 = load i8, ptr %10, align 1
  %71 = zext i8 %70 to i32
  switch i32 %71, label %99 [
    i32 3, label %72
    i32 4, label %72
    i32 5, label %88
    i32 6, label %88
    i32 7, label %88
  ]

72:                                               ; preds = %57, %57
  %73 = load ptr, ptr %7, align 8
  %74 = load i32, ptr @hf_dpnss_sic_oct2_net_ind_clk, align 4
  %75 = load ptr, ptr %5, align 8
  %76 = load i32, ptr %8, align 4
  %77 = call ptr @proto_tree_add_item(ptr noundef %73, i32 noundef %74, ptr noundef %75, i32 noundef %76, i32 noundef 1, i32 noundef 0)
  %78 = load ptr, ptr %7, align 8
  %79 = load i32, ptr @hf_dpnss_sic_oct2_sync_data_format, align 4
  %80 = load ptr, ptr %5, align 8
  %81 = load i32, ptr %8, align 4
  %82 = call ptr @proto_tree_add_item(ptr noundef %78, i32 noundef %79, ptr noundef %80, i32 noundef %81, i32 noundef 1, i32 noundef 0)
  %83 = load ptr, ptr %7, align 8
  %84 = load i32, ptr @hf_dpnss_sic_oct2_sync_byte_timing, align 4
  %85 = load ptr, ptr %5, align 8
  %86 = load i32, ptr %8, align 4
  %87 = call ptr @proto_tree_add_item(ptr noundef %83, i32 noundef %84, ptr noundef %85, i32 noundef %86, i32 noundef 1, i32 noundef 0)
  br label %100

88:                                               ; preds = %57, %57, %57
  %89 = load ptr, ptr %7, align 8
  %90 = load i32, ptr @hf_dpnss_sic_oct2_async_flow_ctrl, align 4
  %91 = load ptr, ptr %5, align 8
  %92 = load i32, ptr %8, align 4
  %93 = call ptr @proto_tree_add_item(ptr noundef %89, i32 noundef %90, ptr noundef %91, i32 noundef %92, i32 noundef 1, i32 noundef 0)
  %94 = load ptr, ptr %7, align 8
  %95 = load i32, ptr @hf_dpnss_sic_oct2_async_data, align 4
  %96 = load ptr, ptr %5, align 8
  %97 = load i32, ptr %8, align 4
  %98 = call ptr @proto_tree_add_item(ptr noundef %94, i32 noundef %95, ptr noundef %96, i32 noundef %97, i32 noundef 1, i32 noundef 0)
  br label %100

99:                                               ; preds = %57
  br label %100

100:                                              ; preds = %99, %88, %72
  %101 = load ptr, ptr %7, align 8
  %102 = load i32, ptr @hf_dpnss_sic_oct2_duplex, align 4
  %103 = load ptr, ptr %5, align 8
  %104 = load i32, ptr %8, align 4
  %105 = call ptr @proto_tree_add_item(ptr noundef %101, i32 noundef %102, ptr noundef %103, i32 noundef %104, i32 noundef 1, i32 noundef 0)
  %106 = load ptr, ptr %7, align 8
  %107 = load i32, ptr @hf_dpnss_sic_oct2_data_type, align 4
  %108 = load ptr, ptr %5, align 8
  %109 = load i32, ptr %8, align 4
  %110 = call ptr @proto_tree_add_item(ptr noundef %106, i32 noundef %107, ptr noundef %108, i32 noundef %109, i32 noundef 1, i32 noundef 0)
  %111 = load i32, ptr %8, align 4
  %112 = add i32 %111, 1
  store i32 %112, ptr %8, align 4
  br label %113

113:                                              ; preds = %100, %50
  %114 = load i32, ptr %8, align 4
  call void @llvm.lifetime.end.p0(i64 1, ptr %10) #3
  call void @llvm.lifetime.end.p0(i64 1, ptr %9) #3
  ret i32 %114
}