; Function Attrs: null_pointer_is_valid sspstrong uwtable
define internal fastcc range(i32 2, 4) i32 @dissect_dpnss_sic(ptr noundef %0, ptr noundef %1) unnamed_addr #0 {
  %3 = tail call zeroext i8 @tvb_get_uint8(ptr noundef %0, i32 noundef 1)
  %4 = lshr i8 %3, 4
  %5 = and i8 %4, 7
  %6 = load i32, ptr @hf_dpnss_ext_bit, align 4
  %7 = tail call ptr @proto_tree_add_item(ptr noundef %1, i32 noundef %6, ptr noundef %0, i32 noundef 1, i32 noundef 1, i32 noundef 0)
  %8 = load i32, ptr @hf_dpnss_sic_type, align 4
  %9 = tail call ptr @proto_tree_add_item(ptr noundef %1, i32 noundef %8, ptr noundef %0, i32 noundef 1, i32 noundef 1, i32 noundef 0)
  %switch.tableidx = add nsw i8 %5, -1
  %10 = icmp ult i8 %switch.tableidx, 3
  br i1 %10, label %switch.lookup, label %14

switch.lookup:                                    ; preds = %2
  %11 = zext nneg i8 %switch.tableidx to i64
  %switch.gep = getelementptr inbounds nuw [3 x ptr], ptr @switch.table.dissect_dpnss_sic, i64 0, i64 %11
  %switch.load = load ptr, ptr %switch.gep, align 8
  %12 = load i32, ptr %switch.load, align 4
  %13 = tail call ptr @proto_tree_add_item(ptr noundef %1, i32 noundef %12, ptr noundef %0, i32 noundef 1, i32 noundef 1, i32 noundef 0)
  br label %14

14:                                               ; preds = %2, %switch.lookup
  %.not = icmp sgt i8 %3, -1
  br i1 %.not, label %32, label %15

15:                                               ; preds = %14
  %16 = tail call zeroext i8 @tvb_get_uint8(ptr noundef %0, i32 noundef 2)
  %17 = and i8 %16, 7
  %18 = load i32, ptr @hf_dpnss_ext_bit_notall, align 4
  %19 = tail call ptr @proto_tree_add_item(ptr noundef %1, i32 noundef %18, ptr noundef %0, i32 noundef 2, i32 noundef 1, i32 noundef 0)
  switch i8 %17, label %27 [
    i8 3, label %20
    i8 4, label %20
    i8 5, label %.sink.split1
    i8 6, label %.sink.split1
    i8 7, label %.sink.split1
  ]

20:                                               ; preds = %15, %15
  %21 = load i32, ptr @hf_dpnss_sic_oct2_net_ind_clk, align 4
  %22 = tail call ptr @proto_tree_add_item(ptr noundef %1, i32 noundef %21, ptr noundef %0, i32 noundef 2, i32 noundef 1, i32 noundef 0)
  br label %.sink.split1

.sink.split1:                                     ; preds = %15, %15, %15, %20
  %hf_dpnss_sic_oct2_async_flow_ctrl.sink = phi ptr [ @hf_dpnss_sic_oct2_sync_data_format, %20 ], [ @hf_dpnss_sic_oct2_async_flow_ctrl, %15 ], [ @hf_dpnss_sic_oct2_async_flow_ctrl, %15 ], [ @hf_dpnss_sic_oct2_async_flow_ctrl, %15 ]
  %hf_dpnss_sic_oct2_async_data.sink = phi ptr [ @hf_dpnss_sic_oct2_sync_byte_timing, %20 ], [ @hf_dpnss_sic_oct2_async_data, %15 ], [ @hf_dpnss_sic_oct2_async_data, %15 ], [ @hf_dpnss_sic_oct2_async_data, %15 ]
  %23 = load i32, ptr %hf_dpnss_sic_oct2_async_flow_ctrl.sink, align 4
  %24 = tail call ptr @proto_tree_add_item(ptr noundef %1, i32 noundef %23, ptr noundef %0, i32 noundef 2, i32 noundef 1, i32 noundef 0)
  %25 = load i32, ptr %hf_dpnss_sic_oct2_async_data.sink, align 4
  %26 = tail call ptr @proto_tree_add_item(ptr noundef %1, i32 noundef %25, ptr noundef %0, i32 noundef 2, i32 noundef 1, i32 noundef 0)
  br label %27

27:                                               ; preds = %.sink.split1, %15
  %28 = load i32, ptr @hf_dpnss_sic_oct2_duplex, align 4
  %29 = tail call ptr @proto_tree_add_item(ptr noundef %1, i32 noundef %28, ptr noundef %0, i32 noundef 2, i32 noundef 1, i32 noundef 0)
  %30 = load i32, ptr @hf_dpnss_sic_oct2_data_type, align 4
  %31 = tail call ptr @proto_tree_add_item(ptr noundef %1, i32 noundef %30, ptr noundef %0, i32 noundef 2, i32 noundef 1, i32 noundef 0)
  br label %32

32:                                               ; preds = %27, %14
  %.0 = phi i32 [ 3, %27 ], [ 2, %14 ]
  ret i32 %.0
}